; Function Attrs: null_pointer_is_valid sspstrong uwtable
define internal noundef i32 @raknet_dissect_incompatible_protocol_version(ptr noundef %0, ptr noundef readonly captures(none) %1, ptr noundef %2, ptr readnone captures(none) %3) #0 {
  %5 = load i32, ptr @proto_raknet, align 4
  %6 = tail call ptr @proto_tree_add_item(ptr noundef %2, i32 noundef %5, ptr noundef %0, i32 noundef 0, i32 noundef -1, i32 noundef 0)
  %7 = load i32, ptr @ett_raknet, align 4
  %8 = tail call ptr @proto_item_add_subtree(ptr noundef %6, i32 noundef %7)
  %9 = tail call zeroext i8 @tvb_get_uint8(ptr noundef %0, i32 noundef 0)
  %10 = load i32, ptr @hf_raknet_offline_message_id, align 4
  %11 = tail call ptr @proto_tree_add_item(ptr noundef %8, i32 noundef %10, ptr noundef %0, i32 noundef 0, i32 noundef 1, i32 noundef 0)
  %12 = getelementptr inbounds nuw i8, ptr %1, i64 8
  %13 = load ptr, ptr %12, align 8
  %14 = zext i8 %9 to i32
  %15 = tail call ptr @val_to_str(i32 noundef %14, ptr noundef nonnull @raknet_offline_message_names, ptr noundef nonnull @.str.205)
  tail call void @col_add_str(ptr noundef %13, i32 noundef 25, ptr noundef %15)
  tail call void (ptr, ptr, ...) @proto_item_append_text(ptr noundef %6, ptr noundef nonnull @.str.206, i32 noundef %14)
  %16 = load i32, ptr @hf_raknet_raknet_proto_ver, align 4
  %17 = tail call ptr @proto_tree_add_item(ptr noundef %8, i32 noundef %16, ptr noundef %0, i32 noundef 1, i32 noundef 1, i32 noundef 0)
  %18 = load i32, ptr @hf_raknet_offline_message_data_id, align 4
  %19 = tail call ptr @proto_tree_add_item(ptr noundef %8, i32 noundef %18, ptr noundef %0, i32 noundef 2, i32 noundef 16, i32 noundef 0)
  %20 = load i32, ptr @hf_raknet_server_guid, align 4
  %21 = tail call ptr @proto_tree_add_item(ptr noundef %8, i32 noundef %20, ptr noundef %0, i32 noundef 18, i32 noundef 8, i32 noundef 0)
  ret i32 26
}